target datalayout = "e-m:e-p270:32:32-p271:32:32-p272:64:64-i64:64-i128:128-f80:128-n8:16:32:64-S128"
target triple = "x86_64-pc-linux-gnu"

@rb_eArgError = external global i64, align 8
@.str.20 = private unnamed_addr constant [17 x i8] c"invalid radix %d\00", align 1
@.str.21 = private unnamed_addr constant [2 x i8] c"0\00", align 1
@ruby_digitmap = external constant [0 x i8], align 1
@rb_fix_to_s_static = internal global [10 x i64] zeroinitializer, align 16

; Function Attrs: inlinehint nounwind sspstrong uwtable
define internal i64 @rbimpl_strlen(ptr noundef nonnull %0) #8 {
  %2 = alloca ptr, align 8
  store ptr %0, ptr %2, align 8, !tbaa !11
  %3 = load ptr, ptr %2, align 8, !tbaa !11
  %4 = call i64 @strlen(ptr noundef %3) #27
  ret i64 %4
}

; Function Attrs: inlinehint nounwind sspstrong uwtable
define internal i64 @rbimpl_usascii_str_new_cstr(ptr noundef nonnull %0) #8 {
  %2 = alloca ptr, align 8
  %3 = alloca i64, align 8
  store ptr %0, ptr %2, align 8, !tbaa !11
  call void @llvm.lifetime.start.p0(i64 8, ptr %3) #25
  %4 = load ptr, ptr %2, align 8, !tbaa !11
  %5 = call i64 @rbimpl_strlen(ptr noundef %4)
  store i64 %5, ptr %3, align 8, !tbaa !7
  %6 = load ptr, ptr %2, align 8, !tbaa !11
  %7 = load i64, ptr %3, align 8, !tbaa !7
  %8 = call i64 @rb_usascii_str_new_static(ptr noundef %6, i64 noundef %7)
  call void @llvm.lifetime.end.p0(i64 8, ptr %3) #25
  ret i64 %8
}

; Function Attrs: inlinehint nounwind sspstrong willreturn memory(none) uwtable
define internal i64 @rbimpl_fix2long_by_idiv(i64 noundef %0) #4 {
  %2 = alloca i64, align 8
  %3 = alloca i64, align 8
  %4 = alloca i64, align 8
  %5 = alloca i64, align 8
  store i64 %0, ptr %2, align 8, !tbaa !7
  call void @llvm.lifetime.start.p0(i64 8, ptr %3) #25
  %6 = load i64, ptr %2, align 8, !tbaa !7
  %7 = sub i64 %6, 1
  store i64 %7, ptr %3, align 8, !tbaa !7
  call void @llvm.lifetime.start.p0(i64 8, ptr %4) #25
  %8 = load i64, ptr %3, align 8, !tbaa !7
  %9 = sdiv i64 %8, 2
  store i64 %9, ptr %4, align 8, !tbaa !7
  call void @llvm.lifetime.start.p0(i64 8, ptr %5) #25
  %10 = load i64, ptr %4, align 8, !tbaa !7
  store i64 %10, ptr %5, align 8, !tbaa !7
  %11 = load i64, ptr %5, align 8, !tbaa !7
  call void @llvm.lifetime.end.p0(i64 8, ptr %5) #25
  call void @llvm.lifetime.end.p0(i64 8, ptr %4) #25
  call void @llvm.lifetime.end.p0(i64 8, ptr %3) #25
  ret i64 %11
}

; Function Attrs: inlinehint nounwind sspstrong willreturn memory(none) uwtable
define internal i64 @rbimpl_fix2long_by_shift(i64 noundef %0) #4 {
  %2 = alloca i64, align 8
  %3 = alloca i64, align 8
  %4 = alloca i64, align 8
  %5 = alloca i64, align 8
  store i64 %0, ptr %2, align 8, !tbaa !7
  call void @llvm.lifetime.start.p0(i64 8, ptr %3) #25
  %6 = load i64, ptr %2, align 8, !tbaa !7
  store i64 %6, ptr %3, align 8, !tbaa !7
  call void @llvm.lifetime.start.p0(i64 8, ptr %4) #25
  %7 = load i64, ptr %3, align 8, !tbaa !7
  %8 = ashr i64 %7, 1
  store i64 %8, ptr %4, align 8, !tbaa !7
  call void @llvm.lifetime.start.p0(i64 8, ptr %5) #25
  %9 = load i64, ptr %4, align 8, !tbaa !7
  store i64 %9, ptr %5, align 8, !tbaa !7
  %10 = load i64, ptr %5, align 8, !tbaa !7
  call void @llvm.lifetime.end.p0(i64 8, ptr %5) #25
  call void @llvm.lifetime.end.p0(i64 8, ptr %4) #25
  call void @llvm.lifetime.end.p0(i64 8, ptr %3) #25
  ret i64 %10
}

; Function Attrs: inlinehint nounwind sspstrong willreturn memory(none) uwtable
define internal zeroext i1 @rbimpl_right_shift_is_arithmetic_p() #4 {
  ret i1 true
}

; Function Attrs: nounwind sspstrong uwtable
define dso_local i64 @rb_fix2str(i64 noundef %0, i32 noundef %1) #2 {
  %3 = alloca i64, align 8
  %4 = alloca i64, align 8
  %5 = alloca i32, align 4
  %6 = alloca [65 x i8], align 16
  %7 = alloca ptr, align 8
  %8 = alloca ptr, align 8
  %9 = alloca i64, align 8
  %10 = alloca i64, align 8
  %11 = alloca i32, align 4
  %12 = alloca i32, align 4
  store i64 %0, ptr %4, align 8, !tbaa !7
  store i32 %1, ptr %5, align 4, !tbaa !14
  call void @llvm.lifetime.start.p0(i64 65, ptr %6) #25
  call void @llvm.lifetime.start.p0(i64 8, ptr %7) #25
  %13 = getelementptr inbounds [65 x i8], ptr %6, i64 0, i64 0
  %14 = getelementptr i8, ptr %13, i64 65
  store ptr %14, ptr %7, align 8, !tbaa !11
  call void @llvm.lifetime.start.p0(i64 8, ptr %8) #25
  %15 = load ptr, ptr %7, align 8, !tbaa !11
  store ptr %15, ptr %8, align 8, !tbaa !11
  call void @llvm.lifetime.start.p0(i64 8, ptr %9) #25
  %16 = load i64, ptr %4, align 8, !tbaa !7
  %17 = call i64 @rb_fix2long(i64 noundef %16) #26
  store i64 %17, ptr %9, align 8, !tbaa !7
  call void @llvm.lifetime.start.p0(i64 8, ptr %10) #25
  call void @llvm.lifetime.start.p0(i64 4, ptr %11) #25
  store i32 0, ptr %11, align 4, !tbaa !14
  %18 = load i32, ptr %5, align 4, !tbaa !14
  %19 = icmp slt i32 %18, 2
  br i1 %19, label %23, label %20

20:                                               ; preds = %2
  %21 = load i32, ptr %5, align 4, !tbaa !14
  %22 = icmp slt i32 36, %21
  br i1 %22, label %23, label %26

23:                                               ; preds = %20, %2
  %24 = load i64, ptr @rb_eArgError, align 8, !tbaa !7
  %25 = load i32, ptr %5, align 4, !tbaa !14
  call void (i64, ptr, ...) @rb_raise(i64 noundef %24, ptr noundef @.str.20, i32 noundef %25) #24
  unreachable

26:                                               ; preds = %20
  %27 = load i64, ptr %9, align 8, !tbaa !7
  %28 = icmp eq i64 %27, 0
  br i1 %28, label %29, label %31

29:                                               ; preds = %26
  %30 = call i64 @rbimpl_usascii_str_new_cstr(ptr noundef @.str.21)
  store i64 %30, ptr %3, align 8
  store i32 1, ptr %12, align 4
  br label %83

31:                                               ; preds = %26
  %32 = load i64, ptr %9, align 8, !tbaa !7
  %33 = icmp slt i64 %32, 0
  br i1 %33, label %34, label %39

34:                                               ; preds = %31
  %35 = load i64, ptr %9, align 8, !tbaa !7
  %36 = add i64 %35, 1
  %37 = sub i64 0, %36
  %38 = add i64 1, %37
  store i64 %38, ptr %10, align 8, !tbaa !7
  store i32 1, ptr %11, align 4, !tbaa !14
  br label %41

39:                                               ; preds = %31
  %40 = load i64, ptr %9, align 8, !tbaa !7
  store i64 %40, ptr %10, align 8, !tbaa !7
  br label %41

41:                                               ; preds = %39, %34
  br label %42

42:                                               ; preds = %53, %41
  %43 = load i64, ptr %10, align 8, !tbaa !7
  %44 = load i32, ptr %5, align 4, !tbaa !14
  %45 = sext i32 %44 to i64
  %46 = urem i64 %43, %45
  %47 = trunc i64 %46 to i32
  %48 = sext i32 %47 to i64
  %49 = getelementptr [0 x i8], ptr @ruby_digitmap, i64 0, i64 %48
  %50 = load i8, ptr %49, align 1, !tbaa !16
  %51 = load ptr, ptr %8, align 8, !tbaa !11
  %52 = getelementptr i8, ptr %51, i32 -1
  store ptr %52, ptr %8, align 8, !tbaa !11
  store i8 %50, ptr %52, align 1, !tbaa !16
  br label %53

53:                                               ; preds = %42
  %54 = load i32, ptr %5, align 4, !tbaa !14
  %55 = sext i32 %54 to i64
  %56 = load i64, ptr %10, align 8, !tbaa !7
  %57 = udiv i64 %56, %55
  store i64 %57, ptr %10, align 8, !tbaa !7
  %58 = icmp ne i64 %57, 0
  br i1 %58, label %42, label %59, !llvm.loop !48

59:                                               ; preds = %53
  %60 = load i32, ptr %11, align 4, !tbaa !14
  %61 = icmp ne i32 %60, 0
  br i1 %61, label %62, label %65

62:                                               ; preds = %59
  %63 = load ptr, ptr %8, align 8, !tbaa !11
  %64 = getelementptr i8, ptr %63, i32 -1
  store ptr %64, ptr %8, align 8, !tbaa !11
  store i8 45, ptr %64, align 1, !tbaa !16
  br label %65

65:                                               ; preds = %62, %59
  br i1 false, label %66, label %73

66:                                               ; preds = %65
  %67 = load ptr, ptr %7, align 8, !tbaa !11
  %68 = load ptr, ptr %8, align 8, !tbaa !11
  %69 = ptrtoint ptr %67 to i64
  %70 = ptrtoint ptr %68 to i64
  %71 = sub i64 %69, %70
  %72 = call i1 @llvm.is.constant.i64(i64 %71)
  br label %73

73:                                               ; preds = %66, %65
  %74 = phi i1 [ false, %65 ], [ %72, %66 ]
  %75 = select i1 %74, ptr @rb_usascii_str_new_static, ptr @rb_usascii_str_new
  %76 = load ptr, ptr %8, align 8, !tbaa !11
  %77 = load ptr, ptr %7, align 8, !tbaa !11
  %78 = load ptr, ptr %8, align 8, !tbaa !11
  %79 = ptrtoint ptr %77 to i64
  %80 = ptrtoint ptr %78 to i64
  %81 = sub i64 %79, %80
  %82 = call i64 %75(ptr noundef %76, i64 noundef %81)
  store i64 %82, ptr %3, align 8
  store i32 1, ptr %12, align 4
  br label %83

83:                                               ; preds = %73, %29
  call void @llvm.lifetime.end.p0(i64 4, ptr %11) #25
  call void @llvm.lifetime.end.p0(i64 8, ptr %10) #25
  call void @llvm.lifetime.end.p0(i64 8, ptr %9) #25
  call void @llvm.lifetime.end.p0(i64 8, ptr %8) #25
  call void @llvm.lifetime.end.p0(i64 8, ptr %7) #25
  call void @llvm.lifetime.end.p0(i64 65, ptr %6) #25
  %84 = load i64, ptr %3, align 8
  ret i64 %84
}

; Function Attrs: inlinehint nounwind sspstrong willreturn memory(none) uwtable
define internal i64 @rb_fix2long(i64 noundef %0) #4 {
  %2 = alloca i64, align 8
  %3 = alloca i64, align 8
  store i64 %0, ptr %3, align 8, !tbaa !7
  %4 = call zeroext i1 @rbimpl_right_shift_is_arithmetic_p() #26
  br i1 %4, label %5, label %8

5:                                                ; preds = %1
  %6 = load i64, ptr %3, align 8, !tbaa !7
  %7 = call i64 @rbimpl_fix2long_by_shift(i64 noundef %6) #26
  store i64 %7, ptr %2, align 8
  br label %11

8:                                                ; preds = %1
  %9 = load i64, ptr %3, align 8, !tbaa !7
  %10 = call i64 @rbimpl_fix2long_by_idiv(i64 noundef %9) #26
  store i64 %10, ptr %2, align 8
  br label %11

11:                                               ; preds = %8, %5
  %12 = load i64, ptr %2, align 8
  ret i64 %12
}

; Function Attrs: nounwind sspstrong uwtable
define hidden i64 @rb_fix_to_s(i64 noundef %0) #2 {
  %2 = alloca i64, align 8
  %3 = alloca i64, align 8
  %4 = alloca i64, align 8
  %5 = alloca i32, align 4
  store i64 %0, ptr %3, align 8, !tbaa !7
  call void @llvm.lifetime.start.p0(i64 8, ptr %4) #25
  %6 = load i64, ptr %3, align 8, !tbaa !7
  %7 = call i64 @rb_fix2long(i64 noundef %6) #26
  store i64 %7, ptr %4, align 8, !tbaa !7
  %8 = load i64, ptr %4, align 8, !tbaa !7
  %9 = icmp sge i64 %8, 0
  br i1 %9, label %10, label %17

10:                                               ; preds = %1
  %11 = load i64, ptr %4, align 8, !tbaa !7
  %12 = icmp slt i64 %11, 10
  br i1 %12, label %13, label %17

13:                                               ; preds = %10
  %14 = load i64, ptr %4, align 8, !tbaa !7
  %15 = getelementptr [10 x i64], ptr @rb_fix_to_s_static, i64 0, i64 %14
  %16 = load i64, ptr %15, align 8, !tbaa !7
  store i64 %16, ptr %2, align 8
  store i32 1, ptr %5, align 4
  br label %20

17:                                               ; preds = %10, %1
  %18 = load i64, ptr %3, align 8, !tbaa !7
  %19 = call i64 @rb_fix2str(i64 noundef %18, i32 noundef 10)
  store i64 %19, ptr %2, align 8
  store i32 1, ptr %5, align 4
  br label %20

20:                                               ; preds = %17, %13
  call void @llvm.lifetime.end.p0(i64 8, ptr %4) #25
  %21 = load i64, ptr %2, align 8
  ret i64 %21
}