; Function Attrs: nounwind sspstrong uwtable
define hidden i64 @rb_fix_to_s(i64 noundef %0) local_unnamed_addr #2 {
  %2 = alloca [65 x i8], align 16
  %3 = ashr i64 %0, 1
  %or.cond = icmp ult i64 %3, 10
  br i1 %or.cond, label %4, label %7

4:                                                ; preds = %1
  %5 = getelementptr [10 x i64], ptr @rb_fix_to_s_static, i64 0, i64 %3
  %6 = load i64, ptr %5, align 8, !tbaa !7
  br label %28

7:                                                ; preds = %1
  call void @llvm.lifetime.start.p0(i64 65, ptr nonnull %2) #26
  %8 = getelementptr inbounds nuw i8, ptr %2, i64 65
  %9 = icmp ult i64 %0, 2
  br i1 %9, label %10, label %12

10:                                               ; preds = %7
  %11 = tail call i64 @rb_usascii_str_new_static(ptr noundef nonnull @.str.21, i64 noundef 1) #26
  br label %rb_fix2str.exit

12:                                               ; preds = %7
  %.020.i = tail call i64 @llvm.abs.i64(i64 %3, i1 true)
  br label %13

13:                                               ; preds = %13, %12
  %.022.i = phi ptr [ %8, %12 ], [ %17, %13 ]
  %.1.i = phi i64 [ %.020.i, %12 ], [ %18, %13 ]
  %14 = urem i64 %.1.i, 10
  %15 = getelementptr [0 x i8], ptr @ruby_digitmap, i64 0, i64 %14
  %16 = load i8, ptr %15, align 1, !tbaa !20
  %17 = getelementptr i8, ptr %.022.i, i64 -1
  store i8 %16, ptr %17, align 1, !tbaa !20
  %18 = udiv i64 %.1.i, 10
  %.not.i = icmp samesign ult i64 %.1.i, 10
  br i1 %.not.i, label %19, label %13, !llvm.loop !45

19:                                               ; preds = %13
  %20 = icmp sgt i64 %3, -1
  br i1 %20, label %23, label %21

21:                                               ; preds = %19
  %22 = getelementptr i8, ptr %.022.i, i64 -2
  store i8 45, ptr %22, align 1, !tbaa !20
  br label %23

23:                                               ; preds = %21, %19
  %.123.i = phi ptr [ %22, %21 ], [ %17, %19 ]
  %24 = ptrtoint ptr %8 to i64
  %25 = ptrtoint ptr %.123.i to i64
  %26 = sub i64 %24, %25
  %27 = call i64 @rb_usascii_str_new(ptr noundef nonnull %.123.i, i64 noundef %26) #26
  br label %rb_fix2str.exit

rb_fix2str.exit:                                  ; preds = %10, %23
  %.021.i = phi i64 [ %11, %10 ], [ %27, %23 ]
  call void @llvm.lifetime.end.p0(i64 65, ptr nonnull %2) #26
  br label %28

28:                                               ; preds = %rb_fix2str.exit, %4
  %.0 = phi i64 [ %6, %4 ], [ %.021.i, %rb_fix2str.exit ]
  ret i64 %.0
}